target datalayout = "e-m:e-p270:32:32-p271:32:32-p272:64:64-i64:64-i128:128-f80:128-n8:16:32:64-S128"
target triple = "x86_64-pc-linux-gnu"

%struct.AVDictionaryEntry = type { ptr, ptr }

; Function Attrs: nounwind uwtable
define void @remove_avoptions(ptr noundef %0, ptr noundef %1) #0 {
  %3 = alloca ptr, align 8
  %4 = alloca ptr, align 8
  %5 = alloca ptr, align 8
  store ptr %0, ptr %3, align 8, !tbaa !192
  store ptr %1, ptr %4, align 8, !tbaa !105
  call void @llvm.lifetime.start.p0(i64 8, ptr %5) #11
  store ptr null, ptr %5, align 8, !tbaa !180
  br label %6

6:                                                ; preds = %11, %2
  %7 = load ptr, ptr %4, align 8, !tbaa !105
  %8 = load ptr, ptr %5, align 8, !tbaa !180
  %9 = call ptr @av_dict_iterate(ptr noundef %7, ptr noundef %8)
  store ptr %9, ptr %5, align 8, !tbaa !180
  %10 = icmp ne ptr %9, null
  br i1 %10, label %11, label %17

11:                                               ; preds = %6
  %12 = load ptr, ptr %3, align 8, !tbaa !192
  %13 = load ptr, ptr %5, align 8, !tbaa !180
  %14 = getelementptr inbounds nuw %struct.AVDictionaryEntry, ptr %13, i32 0, i32 0
  %15 = load ptr, ptr %14, align 8, !tbaa !195
  %16 = call i32 @av_dict_set(ptr noundef %12, ptr noundef %15, ptr noundef null, i32 noundef 1)
  br label %6, !llvm.loop !210

17:                                               ; preds = %6
  call void @llvm.lifetime.end.p0(i64 8, ptr %5) #11
  ret void
}