; Function Attrs: nounwind uwtable
define void @remove_avoptions(ptr noundef %0, ptr noundef %1) local_unnamed_addr #0 {
  %3 = tail call ptr @av_dict_iterate(ptr noundef %1, ptr noundef null) #15
  %.not5 = icmp eq ptr %3, null
  br i1 %.not5, label %._crit_edge, label %.lr.ph

.lr.ph:                                           ; preds = %2, %.lr.ph
  %4 = phi ptr [ %7, %.lr.ph ], [ %3, %2 ]
  %5 = load ptr, ptr %4, align 8, !tbaa !166
  %6 = tail call i32 @av_dict_set(ptr noundef %0, ptr noundef %5, ptr noundef null, i32 noundef 1) #15
  %7 = tail call ptr @av_dict_iterate(ptr noundef %1, ptr noundef nonnull %4) #15
  %.not = icmp eq ptr %7, null
  br i1 %.not, label %._crit_edge, label %.lr.ph, !llvm.loop !179

._crit_edge:                                      ; preds = %.lr.ph, %2
  ret void
}